; Function Attrs: mustprogress nounwind uwtable
define internal void @_ZN6hermes12_GLOBAL__N_110DumpModuleD0Ev(ptr noundef nonnull align 8 dereferenceable(56) %this) unnamed_addr #1 align 2 {
entry:
  store ptr getelementptr inbounds ({ [5 x ptr] }, ptr @_ZTVN6hermes12_GLOBAL__N_110DumpModuleE, i64 0, i32 0, i64 2), ptr %this, align 8
  %pass_.i = getelementptr inbounds i8, ptr %this, i64 48
  %0 = load ptr, ptr %pass_.i, align 8
  %cmp.not.i.i = icmp eq ptr %0, null
  br i1 %cmp.not.i.i, label %_ZN6hermes12_GLOBAL__N_110DumpModuleD2Ev.exit, label %_ZNKSt14default_deleteIN6hermes10ModulePassEEclEPS1_.exit.i.i

_ZNKSt14default_deleteIN6hermes10ModulePassEEclEPS1_.exit.i.i: ; preds = %entry
  %vtable.i.i.i = load ptr, ptr %0, align 8
  %vfn.i.i.i = getelementptr inbounds i8, ptr %vtable.i.i.i, i64 8
  %1 = load ptr, ptr %vfn.i.i.i, align 8
  tail call void %1(ptr noundef nonnull align 8 dereferenceable(32) %0) #14
  br label %_ZN6hermes12_GLOBAL__N_110DumpModuleD2Ev.exit

_ZN6hermes12_GLOBAL__N_110DumpModuleD2Ev.exit:    ; preds = %entry, %_ZNKSt14default_deleteIN6hermes10ModulePassEEclEPS1_.exit.i.i
  tail call void @_ZdlPv(ptr noundef nonnull %this) #15
  ret void
}